target datalayout = "e-m:e-p270:32:32-p271:32:32-p272:64:64-i64:64-i128:128-f80:128-n8:16:32:64-S128"
target triple = "x86_64-pc-linux-gnu"

%struct.ic_env_s = type { ptr, ptr, ptr, ptr, ptr, ptr, ptr, ptr, ptr, ptr, ptr, ptr, ptr, i8, i8, i8, i8, i8, i8, i8, i8, i8, i8, i8, i8, i8, i64 }

@rpenv = internal global ptr null, align 8
@.str.425 = private unnamed_addr constant [5 x i8] c"\1B[7m\00", align 1
@.str.426 = private unnamed_addr constant [6 x i8] c"\1B[27m\00", align 1

; Function Attrs: inlinehint nounwind uwtable
define internal i64 @to_ssize_t(i64 noundef %0) #4 {
  %2 = alloca i64, align 8
  store i64 %0, ptr %2, align 8, !tbaa !9
  %3 = load i64, ptr %2, align 8, !tbaa !9
  %4 = icmp ule i64 %3, 9223372036854775807
  br i1 %4, label %5, label %7

5:                                                ; preds = %1
  %6 = load i64, ptr %2, align 8, !tbaa !9
  br label %8

7:                                                ; preds = %1
  br label %8

8:                                                ; preds = %7, %5
  %9 = phi i64 [ %6, %5 ], [ 0, %7 ]
  ret i64 %9
}

; Function Attrs: nounwind uwtable
define internal i64 @ic_strlen(ptr noundef %0) #0 {
  %2 = alloca i64, align 8
  %3 = alloca ptr, align 8
  store ptr %0, ptr %3, align 8, !tbaa !11
  %4 = load ptr, ptr %3, align 8, !tbaa !11
  %5 = icmp eq ptr %4, null
  br i1 %5, label %6, label %7

6:                                                ; preds = %1
  store i64 0, ptr %2, align 8
  br label %11

7:                                                ; preds = %1
  %8 = load ptr, ptr %3, align 8, !tbaa !11
  %9 = call i64 @strlen(ptr noundef %8) #14
  %10 = call i64 @to_ssize_t(i64 noundef %9)
  store i64 %10, ptr %2, align 8
  br label %11

11:                                               ; preds = %7, %6
  %12 = load i64, ptr %2, align 8
  ret i64 %12
}

; Function Attrs: nounwind uwtable
define internal void @term_write(ptr noundef %0, ptr noundef %1) #0 {
  %3 = alloca ptr, align 8
  %4 = alloca ptr, align 8
  %5 = alloca i64, align 8
  store ptr %0, ptr %3, align 8, !tbaa !129
  store ptr %1, ptr %4, align 8, !tbaa !11
  %6 = load ptr, ptr %4, align 8, !tbaa !11
  %7 = icmp eq ptr %6, null
  br i1 %7, label %14, label %8

8:                                                ; preds = %2
  %9 = load ptr, ptr %4, align 8, !tbaa !11
  %10 = getelementptr inbounds i8, ptr %9, i64 0
  %11 = load i8, ptr %10, align 1, !tbaa !13
  %12 = sext i8 %11 to i32
  %13 = icmp eq i32 %12, 0
  br i1 %13, label %14, label %15

14:                                               ; preds = %8, %2
  br label %21

15:                                               ; preds = %8
  call void @llvm.lifetime.start.p0(i64 8, ptr %5) #13
  %16 = load ptr, ptr %4, align 8, !tbaa !11
  %17 = call i64 @ic_strlen(ptr noundef %16)
  store i64 %17, ptr %5, align 8, !tbaa !9
  %18 = load ptr, ptr %3, align 8, !tbaa !129
  %19 = load ptr, ptr %4, align 8, !tbaa !11
  %20 = load i64, ptr %5, align 8, !tbaa !9
  call void @term_write_n(ptr noundef %18, ptr noundef %19, i64 noundef %20)
  call void @llvm.lifetime.end.p0(i64 8, ptr %5) #13
  br label %21

21:                                               ; preds = %15, %14
  ret void
}

; Function Attrs: nounwind uwtable
define internal void @term_reverse(ptr noundef %0, i1 noundef zeroext %1) #0 {
  %3 = alloca ptr, align 8
  %4 = alloca i8, align 1
  store ptr %0, ptr %3, align 8, !tbaa !129
  %5 = zext i1 %1 to i8
  store i8 %5, ptr %4, align 1, !tbaa !132
  %6 = load ptr, ptr %3, align 8, !tbaa !129
  %7 = load i8, ptr %4, align 1, !tbaa !132, !range !124, !noundef !125
  %8 = trunc i8 %7 to i1
  %9 = select i1 %8, ptr @.str.425, ptr @.str.426
  call void @term_write(ptr noundef %6, ptr noundef %9)
  ret void
}

; Function Attrs: nounwind uwtable
define internal ptr @ic_get_env() #0 {
  %1 = load ptr, ptr @rpenv, align 8, !tbaa !65
  %2 = icmp eq ptr %1, null
  br i1 %2, label %3, label %10

3:                                                ; preds = %0
  %4 = call ptr @ic_env_create(ptr noundef null, ptr noundef null, ptr noundef null)
  store ptr %4, ptr @rpenv, align 8, !tbaa !65
  %5 = load ptr, ptr @rpenv, align 8, !tbaa !65
  %6 = icmp ne ptr %5, null
  br i1 %6, label %7, label %9

7:                                                ; preds = %3
  %8 = call i32 @atexit(ptr noundef @ic_atexit) #13
  br label %9

9:                                                ; preds = %7, %3
  br label %10

10:                                               ; preds = %9, %0
  %11 = load ptr, ptr @rpenv, align 8, !tbaa !65
  ret ptr %11
}

; Function Attrs: nounwind uwtable
define dso_local void @ic_term_reverse(i1 noundef zeroext %0) #0 {
  %2 = alloca i8, align 1
  %3 = alloca ptr, align 8
  %4 = alloca i32, align 4
  %5 = zext i1 %0 to i8
  store i8 %5, ptr %2, align 1, !tbaa !132
  call void @llvm.lifetime.start.p0(i64 8, ptr %3) #13
  %6 = call ptr @ic_get_env()
  store ptr %6, ptr %3, align 8, !tbaa !65
  %7 = load ptr, ptr %3, align 8, !tbaa !65
  %8 = icmp eq ptr %7, null
  br i1 %8, label %14, label %9

9:                                                ; preds = %1
  %10 = load ptr, ptr %3, align 8, !tbaa !65
  %11 = getelementptr inbounds nuw %struct.ic_env_s, ptr %10, i32 0, i32 2
  %12 = load ptr, ptr %11, align 8, !tbaa !127
  %13 = icmp eq ptr %12, null
  br i1 %13, label %14, label %15

14:                                               ; preds = %9, %1
  store i32 1, ptr %4, align 4
  br label %21

15:                                               ; preds = %9
  %16 = load ptr, ptr %3, align 8, !tbaa !65
  %17 = getelementptr inbounds nuw %struct.ic_env_s, ptr %16, i32 0, i32 2
  %18 = load ptr, ptr %17, align 8, !tbaa !127
  %19 = load i8, ptr %2, align 1, !tbaa !132, !range !124, !noundef !125
  %20 = trunc i8 %19 to i1
  call void @term_reverse(ptr noundef %18, i1 noundef zeroext %20)
  store i32 0, ptr %4, align 4
  br label %21

21:                                               ; preds = %15, %14
  call void @llvm.lifetime.end.p0(i64 8, ptr %3) #13
  %22 = load i32, ptr %4, align 4
  switch i32 %22, label %24 [
    i32 0, label %23
    i32 1, label %23
  ]

23:                                               ; preds = %21, %21
  ret void

24:                                               ; preds = %21
  unreachable
}