; Function Attrs: nounwind uwtable
define dso_local void @ic_term_reverse(i1 noundef zeroext %0) local_unnamed_addr #0 {
  %2 = load ptr, ptr @rpenv, align 8, !tbaa !108
  %3 = icmp eq ptr %2, null
  br i1 %3, label %4, label %ic_get_env.exit.thread4

4:                                                ; preds = %1
  %5 = tail call fastcc ptr @ic_env_create(ptr noundef null, ptr noundef null, ptr noundef null)
  store ptr %5, ptr @rpenv, align 8, !tbaa !108
  %.not.i = icmp eq ptr %5, null
  br i1 %.not.i, label %term_reverse.exit, label %ic_get_env.exit

ic_get_env.exit:                                  ; preds = %4
  %6 = tail call i32 @atexit(ptr noundef nonnull @ic_atexit) #32
  %.pre.i = load ptr, ptr @rpenv, align 8, !tbaa !108
  %7 = icmp eq ptr %.pre.i, null
  br i1 %7, label %term_reverse.exit, label %ic_get_env.exit.thread4

ic_get_env.exit.thread4:                          ; preds = %1, %ic_get_env.exit
  %8 = phi ptr [ %.pre.i, %ic_get_env.exit ], [ %2, %1 ]
  %9 = getelementptr inbounds nuw i8, ptr %8, i64 16
  %10 = load ptr, ptr %9, align 8, !tbaa !124
  %11 = icmp eq ptr %10, null
  br i1 %11, label %term_reverse.exit, label %12

12:                                               ; preds = %ic_get_env.exit.thread4
  %13 = select i1 %0, ptr @.str.425, ptr @.str.426
  %14 = load i8, ptr %13, align 1, !tbaa !4
  %15 = icmp eq i8 %14, 0
  br i1 %15, label %term_reverse.exit, label %ic_strlen.exit.i.i

ic_strlen.exit.i.i:                               ; preds = %12
  %16 = select i1 %0, i64 4, i64 5
  tail call fastcc void @term_write_n(ptr noundef nonnull %10, ptr noundef nonnull %13, i64 noundef %16)
  br label %term_reverse.exit

term_reverse.exit:                                ; preds = %4, %ic_strlen.exit.i.i, %12, %ic_get_env.exit, %ic_get_env.exit.thread4
  ret void
}